; ModuleID = 'source-C-CXX/55/1550.c'
source_filename = "source-C-CXX/55/1550.c"
target datalayout = "e-m:e-p270:32:32-p271:32:32-p272:64:64-i64:64-f80:128-n8:16:32:64-S128"
target triple = "x86_64-pc-linux-gnu"

@.str = private unnamed_addr constant [3 x i8] c"%d\00", align 1
@.str.1 = private unnamed_addr constant [6 x i8] c"%d%d\0A\00", align 1
@.str.2 = private unnamed_addr constant [8 x i8] c"%d%d%d\0A\00", align 1
@.str.3 = private unnamed_addr constant [10 x i8] c"%d%d%d%d\0A\00", align 1
@.str.4 = private unnamed_addr constant [12 x i8] c"%d%d%d%d%d\0A\00", align 1
@str = private unnamed_addr constant [6 x i8] c"error\00", align 1

; Function Attrs: nofree nounwind sspstrong uwtable
define dso_local i32 @main() local_unnamed_addr #0 {
  %1 = alloca i32, align 4
  %2 = bitcast i32* %1 to i8*
  call void @llvm.lifetime.start.p0i8(i64 4, i8* nonnull %2) #4
  %3 = call i32 (i8*, ...) @__isoc99_scanf(i8* getelementptr inbounds ([3 x i8], [3 x i8]* @.str, i64 0, i64 0), i32* nonnull %1)
  %4 = load i32, i32* %1, align 4, !tbaa !5
  %5 = sdiv i32 %4, 10
  %6 = srem i32 %4, 10
  %7 = add i32 %4, 9
  %8 = icmp ult i32 %7, 19
  br i1 %8, label %9, label %11

9:                                                ; preds = %0
  %10 = call i32 (i8*, ...) @printf(i8* nonnull dereferenceable(1) getelementptr inbounds ([3 x i8], [3 x i8]* @.str, i64 0, i64 0), i32 %4)
  br label %53

11:                                               ; preds = %0
  %12 = sdiv i32 %4, 100
  %13 = add i32 %4, 99
  %14 = icmp ult i32 %13, 199
  br i1 %14, label %15, label %20

15:                                               ; preds = %11
  %16 = trunc i32 %4 to i8
  %17 = srem i8 %16, 10
  %18 = sext i8 %17 to i32
  %19 = call i32 (i8*, ...) @printf(i8* nonnull dereferenceable(1) getelementptr inbounds ([6 x i8], [6 x i8]* @.str.1, i64 0, i64 0), i32 %18, i32 %5)
  br label %53

20:                                               ; preds = %11
  %21 = sdiv i32 %4, 1000
  %22 = add i32 %4, 999
  %23 = icmp ult i32 %22, 1999
  br i1 %23, label %24, label %30

24:                                               ; preds = %20
  %25 = trunc i32 %4 to i16
  %26 = srem i16 %25, 10
  %27 = sext i16 %26 to i32
  %28 = srem i32 %5, 10
  %29 = call i32 (i8*, ...) @printf(i8* nonnull dereferenceable(1) getelementptr inbounds ([8 x i8], [8 x i8]* @.str.2, i64 0, i64 0), i32 %27, i32 %28, i32 %12)
  br label %53

30:                                               ; preds = %20
  %31 = sdiv i32 %4, 10000
  %32 = add i32 %4, 9999
  %33 = icmp ult i32 %32, 19999
  br i1 %33, label %34, label %42

34:                                               ; preds = %30
  %35 = trunc i32 %4 to i16
  %36 = srem i16 %35, 10
  %37 = sext i16 %36 to i32
  %38 = srem i32 %5, 10
  %39 = srem i32 %12, 10
  %40 = srem i32 %21, 10
  %41 = call i32 (i8*, ...) @printf(i8* nonnull dereferenceable(1) getelementptr inbounds ([10 x i8], [10 x i8]* @.str.3, i64 0, i64 0), i32 %37, i32 %38, i32 %39, i32 %40)
  br label %53

42:                                               ; preds = %30
  %43 = add i32 %4, 99999
  %44 = icmp ult i32 %43, 199999
  br i1 %44, label %45, label %51

45:                                               ; preds = %42
  %46 = srem i32 %5, 10
  %47 = srem i32 %12, 10
  %48 = srem i32 %21, 10
  %49 = srem i32 %31, 10
  %50 = call i32 (i8*, ...) @printf(i8* nonnull dereferenceable(1) getelementptr inbounds ([12 x i8], [12 x i8]* @.str.4, i64 0, i64 0), i32 %6, i32 %46, i32 %47, i32 %48, i32 %49)
  br label %53

51:                                               ; preds = %42
  %52 = call i32 @puts(i8* nonnull dereferenceable(1) getelementptr inbounds ([6 x i8], [6 x i8]* @str, i64 0, i64 0))
  br label %53

53:                                               ; preds = %15, %34, %51, %45, %24, %9
  call void @llvm.lifetime.end.p0i8(i64 4, i8* nonnull %2) #4
  ret i32 0
}

; Function Attrs: argmemonly mustprogress nofree nosync nounwind willreturn
declare void @llvm.lifetime.start.p0i8(i64 immarg, i8* nocapture) #1

; Function Attrs: nofree nounwind
declare noundef i32 @__isoc99_scanf(i8* nocapture noundef readonly, ...) local_unnamed_addr #2

; Function Attrs: nofree nounwind
declare noundef i32 @printf(i8* nocapture noundef readonly, ...) local_unnamed_addr #2

; Function Attrs: argmemonly mustprogress nofree nosync nounwind willreturn
declare void @llvm.lifetime.end.p0i8(i64 immarg, i8* nocapture) #1

; Function Attrs: nofree nounwind
declare noundef i32 @puts(i8* nocapture noundef readonly) local_unnamed_addr #3


!llvm.module.flags = !{!0, !1, !2, !3}
!llvm.ident = !{!4}

!0 = !{i32 1, !"wchar_size", i32 4}
!1 = !{i32 7, !"PIC Level", i32 2}
!2 = !{i32 7, !"PIE Level", i32 2}
!3 = !{i32 7, !"uwtable", i32 1}
!4 = !{!"clang version 13.0.0"}
!5 = !{!6, !6, i64 0}
!6 = !{!"int", !7, i64 0}
!7 = !{!"omnipotent char", !8, i64 0}
!8 = !{!"Simple C/C++ TBAA"}
